target datalayout = "e-m:e-p270:32:32-p271:32:32-p272:64:64-i64:64-i128:128-f80:128-n8:16:32:64-S128"
target triple = "x86_64-pc-linux-gnu"

%"class.tbb::detail::d1::vector_iterator" = type { ptr, i64, ptr }
%"struct.__gnu_cxx::__ops::_Iter_comp_iter" = type { i8 }

; Function Attrs: mustprogress nounwind
define linkonce_odr dso_local void @_ZN3tbb6detail2d115vector_iteratorINS1_17concurrent_vectorIPN4mold11TimerRecordENS1_23cache_aligned_allocatorIS6_EEEES6_EC2ERKS9_mPS6_(ptr noundef nonnull align 8 dereferenceable(24) %0, ptr noundef nonnull align 8 dereferenceable(65) %1, i64 noundef %2, ptr noundef %3) unnamed_addr #4 comdat align 2 {
  %5 = alloca ptr, align 8
  %6 = alloca ptr, align 8
  %7 = alloca i64, align 8
  %8 = alloca ptr, align 8
  store ptr %0, ptr %5, align 8, !tbaa !165
  store ptr %1, ptr %6, align 8, !tbaa !76
  store i64 %2, ptr %7, align 8, !tbaa !39
  store ptr %3, ptr %8, align 8, !tbaa !85
  %9 = load ptr, ptr %5, align 8
  %10 = getelementptr inbounds nuw %"class.tbb::detail::d1::vector_iterator", ptr %9, i32 0, i32 0
  %11 = load ptr, ptr %6, align 8, !tbaa !76
  store ptr %11, ptr %10, align 8, !tbaa !169
  %12 = getelementptr inbounds nuw %"class.tbb::detail::d1::vector_iterator", ptr %9, i32 0, i32 1
  %13 = load i64, ptr %7, align 8, !tbaa !39
  store i64 %13, ptr %12, align 8, !tbaa !170
  %14 = getelementptr inbounds nuw %"class.tbb::detail::d1::vector_iterator", ptr %9, i32 0, i32 2
  %15 = load ptr, ptr %8, align 8, !tbaa !85
  store ptr %15, ptr %14, align 8, !tbaa !167
  ret void
}

; Function Attrs: mustprogress nounwind
define linkonce_odr dso_local void @_ZNK3tbb6detail2d115vector_iteratorINS1_17concurrent_vectorIPN4mold11TimerRecordENS1_23cache_aligned_allocatorIS6_EEEES6_EplEl(ptr dead_on_unwind noalias writable sret(%"class.tbb::detail::d1::vector_iterator") align 8 %0, ptr noundef nonnull align 8 dereferenceable(24) %1, i64 noundef %2) #4 comdat align 2 {
  %4 = alloca ptr, align 8
  %5 = alloca ptr, align 8
  %6 = alloca i64, align 8
  store ptr %0, ptr %4, align 8
  store ptr %1, ptr %5, align 8, !tbaa !165
  store i64 %2, ptr %6, align 8, !tbaa !39
  %7 = load ptr, ptr %5, align 8
  %8 = getelementptr inbounds nuw %"class.tbb::detail::d1::vector_iterator", ptr %7, i32 0, i32 0
  %9 = load ptr, ptr %8, align 8, !tbaa !169
  %10 = getelementptr inbounds nuw %"class.tbb::detail::d1::vector_iterator", ptr %7, i32 0, i32 1
  %11 = load i64, ptr %10, align 8, !tbaa !170
  %12 = load i64, ptr %6, align 8, !tbaa !39
  %13 = add i64 %11, %12
  call void @_ZN3tbb6detail2d115vector_iteratorINS1_17concurrent_vectorIPN4mold11TimerRecordENS1_23cache_aligned_allocatorIS6_EEEES6_EC2ERKS9_mPS6_(ptr noundef nonnull align 8 dereferenceable(24) %0, ptr noundef nonnull align 8 dereferenceable(65) %9, i64 noundef %13, ptr noundef null)
  ret void
}

; Function Attrs: mustprogress nounwind
define linkonce_odr dso_local void @_ZN3tbb6detail2d115vector_iteratorINS1_17concurrent_vectorIPN4mold11TimerRecordENS1_23cache_aligned_allocatorIS6_EEEES6_EC2ERKSA_(ptr noundef nonnull align 8 dereferenceable(24) %0, ptr noundef nonnull align 8 dereferenceable(24) %1) unnamed_addr #4 comdat align 2 {
  %3 = alloca ptr, align 8
  %4 = alloca ptr, align 8
  store ptr %0, ptr %3, align 8, !tbaa !165
  store ptr %1, ptr %4, align 8, !tbaa !165
  %5 = load ptr, ptr %3, align 8
  %6 = getelementptr inbounds nuw %"class.tbb::detail::d1::vector_iterator", ptr %5, i32 0, i32 0
  %7 = load ptr, ptr %4, align 8, !tbaa !165
  %8 = getelementptr inbounds nuw %"class.tbb::detail::d1::vector_iterator", ptr %7, i32 0, i32 0
  %9 = load ptr, ptr %8, align 8, !tbaa !169
  store ptr %9, ptr %6, align 8, !tbaa !169
  %10 = getelementptr inbounds nuw %"class.tbb::detail::d1::vector_iterator", ptr %5, i32 0, i32 1
  %11 = load ptr, ptr %4, align 8, !tbaa !165
  %12 = getelementptr inbounds nuw %"class.tbb::detail::d1::vector_iterator", ptr %11, i32 0, i32 1
  %13 = load i64, ptr %12, align 8, !tbaa !170
  store i64 %13, ptr %10, align 8, !tbaa !170
  %14 = getelementptr inbounds nuw %"class.tbb::detail::d1::vector_iterator", ptr %5, i32 0, i32 2
  %15 = load ptr, ptr %4, align 8, !tbaa !165
  %16 = getelementptr inbounds nuw %"class.tbb::detail::d1::vector_iterator", ptr %15, i32 0, i32 2
  %17 = load ptr, ptr %16, align 8, !tbaa !167
  store ptr %17, ptr %14, align 8, !tbaa !167
  ret void
}

; Function Attrs: mustprogress nounwind
define linkonce_odr dso_local noundef i64 @_ZN3tbb6detail2d1miINS1_17concurrent_vectorIPN4mold11TimerRecordENS1_23cache_aligned_allocatorIS6_EEEES6_S6_EENS1_15vector_iteratorIT_T0_E15difference_typeERKSD_RKNSA_ISB_T1_EE(ptr noundef nonnull align 8 dereferenceable(24) %0, ptr noundef nonnull align 8 dereferenceable(24) %1) #4 comdat {
  %3 = alloca ptr, align 8
  %4 = alloca ptr, align 8
  store ptr %0, ptr %3, align 8, !tbaa !165
  store ptr %1, ptr %4, align 8, !tbaa !165
  %5 = load ptr, ptr %3, align 8, !tbaa !165
  %6 = getelementptr inbounds nuw %"class.tbb::detail::d1::vector_iterator", ptr %5, i32 0, i32 1
  %7 = load i64, ptr %6, align 8, !tbaa !170
  %8 = load ptr, ptr %4, align 8, !tbaa !165
  %9 = getelementptr inbounds nuw %"class.tbb::detail::d1::vector_iterator", ptr %8, i32 0, i32 1
  %10 = load i64, ptr %9, align 8, !tbaa !170
  %11 = sub nsw i64 %7, %10
  ret i64 %11
}

; Function Attrs: mustprogress nounwind
define internal void @"_ZSt21__inplace_stable_sortIN3tbb6detail2d115vector_iteratorINS2_17concurrent_vectorIPN4mold11TimerRecordENS2_23cache_aligned_allocatorIS7_EEEES7_EEN9__gnu_cxx5__ops15_Iter_comp_iterIZNS5_L9print_recERS6_lE3$_0EEEvT_SI_T0_"(ptr noundef %0, ptr noundef %1) #4 {
  %3 = alloca %"struct.__gnu_cxx::__ops::_Iter_comp_iter", align 1
  %4 = alloca ptr, align 8
  %5 = alloca ptr, align 8
  %6 = alloca %"class.tbb::detail::d1::vector_iterator", align 8
  %7 = alloca %"class.tbb::detail::d1::vector_iterator", align 8
  %8 = alloca %"struct.__gnu_cxx::__ops::_Iter_comp_iter", align 1
  %9 = alloca %"class.tbb::detail::d1::vector_iterator", align 8
  %10 = alloca %"class.tbb::detail::d1::vector_iterator", align 8
  %11 = alloca %"class.tbb::detail::d1::vector_iterator", align 8
  %12 = alloca %"struct.__gnu_cxx::__ops::_Iter_comp_iter", align 1
  %13 = alloca %"class.tbb::detail::d1::vector_iterator", align 8
  %14 = alloca %"class.tbb::detail::d1::vector_iterator", align 8
  %15 = alloca %"struct.__gnu_cxx::__ops::_Iter_comp_iter", align 1
  %16 = alloca %"class.tbb::detail::d1::vector_iterator", align 8
  %17 = alloca %"class.tbb::detail::d1::vector_iterator", align 8
  %18 = alloca %"class.tbb::detail::d1::vector_iterator", align 8
  %19 = alloca %"struct.__gnu_cxx::__ops::_Iter_comp_iter", align 1
  store ptr %0, ptr %4, align 8, !tbaa !165
  store ptr %1, ptr %5, align 8, !tbaa !165
  %20 = call noundef i64 @_ZN3tbb6detail2d1miINS1_17concurrent_vectorIPN4mold11TimerRecordENS1_23cache_aligned_allocatorIS6_EEEES6_S6_EENS1_15vector_iteratorIT_T0_E15difference_typeERKSD_RKNSA_ISB_T1_EE(ptr noundef nonnull align 8 dereferenceable(24) %1, ptr noundef nonnull align 8 dereferenceable(24) %0)
  %21 = icmp slt i64 %20, 15
  br i1 %21, label %22, label %23

22:                                               ; preds = %2
  call void @_ZN3tbb6detail2d115vector_iteratorINS1_17concurrent_vectorIPN4mold11TimerRecordENS1_23cache_aligned_allocatorIS6_EEEES6_EC2ERKSA_(ptr noundef nonnull align 8 dereferenceable(24) %6, ptr noundef nonnull align 8 dereferenceable(24) %0)
  call void @_ZN3tbb6detail2d115vector_iteratorINS1_17concurrent_vectorIPN4mold11TimerRecordENS1_23cache_aligned_allocatorIS6_EEEES6_EC2ERKSA_(ptr noundef nonnull align 8 dereferenceable(24) %7, ptr noundef nonnull align 8 dereferenceable(24) %1)
  call void @llvm.memcpy.p0.p0.i64(ptr align 1 %8, ptr align 1 %3, i64 1, i1 false), !tbaa.struct !87
  call void @"_ZSt16__insertion_sortIN3tbb6detail2d115vector_iteratorINS2_17concurrent_vectorIPN4mold11TimerRecordENS2_23cache_aligned_allocatorIS7_EEEES7_EEN9__gnu_cxx5__ops15_Iter_comp_iterIZNS5_L9print_recERS6_lE3$_0EEEvT_SI_T0_"(ptr noundef %6, ptr noundef %7)
  br label %28

23:                                               ; preds = %2
  call void @llvm.lifetime.start.p0(i64 24, ptr %9) #3
  %24 = call noundef i64 @_ZN3tbb6detail2d1miINS1_17concurrent_vectorIPN4mold11TimerRecordENS1_23cache_aligned_allocatorIS6_EEEES6_S6_EENS1_15vector_iteratorIT_T0_E15difference_typeERKSD_RKNSA_ISB_T1_EE(ptr noundef nonnull align 8 dereferenceable(24) %1, ptr noundef nonnull align 8 dereferenceable(24) %0)
  %25 = sdiv i64 %24, 2
  call void @_ZNK3tbb6detail2d115vector_iteratorINS1_17concurrent_vectorIPN4mold11TimerRecordENS1_23cache_aligned_allocatorIS6_EEEES6_EplEl(ptr dead_on_unwind writable sret(%"class.tbb::detail::d1::vector_iterator") align 8 %9, ptr noundef nonnull align 8 dereferenceable(24) %0, i64 noundef %25)
  call void @_ZN3tbb6detail2d115vector_iteratorINS1_17concurrent_vectorIPN4mold11TimerRecordENS1_23cache_aligned_allocatorIS6_EEEES6_EC2ERKSA_(ptr noundef nonnull align 8 dereferenceable(24) %10, ptr noundef nonnull align 8 dereferenceable(24) %0)
  call void @_ZN3tbb6detail2d115vector_iteratorINS1_17concurrent_vectorIPN4mold11TimerRecordENS1_23cache_aligned_allocatorIS6_EEEES6_EC2ERKSA_(ptr noundef nonnull align 8 dereferenceable(24) %11, ptr noundef nonnull align 8 dereferenceable(24) %9)
  call void @llvm.memcpy.p0.p0.i64(ptr align 1 %12, ptr align 1 %3, i64 1, i1 false), !tbaa.struct !87
  call void @"_ZSt21__inplace_stable_sortIN3tbb6detail2d115vector_iteratorINS2_17concurrent_vectorIPN4mold11TimerRecordENS2_23cache_aligned_allocatorIS7_EEEES7_EEN9__gnu_cxx5__ops15_Iter_comp_iterIZNS5_L9print_recERS6_lE3$_0EEEvT_SI_T0_"(ptr noundef %10, ptr noundef %11)
  call void @_ZN3tbb6detail2d115vector_iteratorINS1_17concurrent_vectorIPN4mold11TimerRecordENS1_23cache_aligned_allocatorIS6_EEEES6_EC2ERKSA_(ptr noundef nonnull align 8 dereferenceable(24) %13, ptr noundef nonnull align 8 dereferenceable(24) %9)
  call void @_ZN3tbb6detail2d115vector_iteratorINS1_17concurrent_vectorIPN4mold11TimerRecordENS1_23cache_aligned_allocatorIS6_EEEES6_EC2ERKSA_(ptr noundef nonnull align 8 dereferenceable(24) %14, ptr noundef nonnull align 8 dereferenceable(24) %1)
  call void @llvm.memcpy.p0.p0.i64(ptr align 1 %15, ptr align 1 %3, i64 1, i1 false), !tbaa.struct !87
  call void @"_ZSt21__inplace_stable_sortIN3tbb6detail2d115vector_iteratorINS2_17concurrent_vectorIPN4mold11TimerRecordENS2_23cache_aligned_allocatorIS7_EEEES7_EEN9__gnu_cxx5__ops15_Iter_comp_iterIZNS5_L9print_recERS6_lE3$_0EEEvT_SI_T0_"(ptr noundef %13, ptr noundef %14)
  call void @_ZN3tbb6detail2d115vector_iteratorINS1_17concurrent_vectorIPN4mold11TimerRecordENS1_23cache_aligned_allocatorIS6_EEEES6_EC2ERKSA_(ptr noundef nonnull align 8 dereferenceable(24) %16, ptr noundef nonnull align 8 dereferenceable(24) %0)
  call void @_ZN3tbb6detail2d115vector_iteratorINS1_17concurrent_vectorIPN4mold11TimerRecordENS1_23cache_aligned_allocatorIS6_EEEES6_EC2ERKSA_(ptr noundef nonnull align 8 dereferenceable(24) %17, ptr noundef nonnull align 8 dereferenceable(24) %9)
  call void @_ZN3tbb6detail2d115vector_iteratorINS1_17concurrent_vectorIPN4mold11TimerRecordENS1_23cache_aligned_allocatorIS6_EEEES6_EC2ERKSA_(ptr noundef nonnull align 8 dereferenceable(24) %18, ptr noundef nonnull align 8 dereferenceable(24) %1)
  %26 = call noundef i64 @_ZN3tbb6detail2d1miINS1_17concurrent_vectorIPN4mold11TimerRecordENS1_23cache_aligned_allocatorIS6_EEEES6_S6_EENS1_15vector_iteratorIT_T0_E15difference_typeERKSD_RKNSA_ISB_T1_EE(ptr noundef nonnull align 8 dereferenceable(24) %9, ptr noundef nonnull align 8 dereferenceable(24) %0)
  %27 = call noundef i64 @_ZN3tbb6detail2d1miINS1_17concurrent_vectorIPN4mold11TimerRecordENS1_23cache_aligned_allocatorIS6_EEEES6_S6_EENS1_15vector_iteratorIT_T0_E15difference_typeERKSD_RKNSA_ISB_T1_EE(ptr noundef nonnull align 8 dereferenceable(24) %1, ptr noundef nonnull align 8 dereferenceable(24) %9)
  call void @llvm.memcpy.p0.p0.i64(ptr align 1 %19, ptr align 1 %3, i64 1, i1 false), !tbaa.struct !87
  call void @"_ZSt22__merge_without_bufferIN3tbb6detail2d115vector_iteratorINS2_17concurrent_vectorIPN4mold11TimerRecordENS2_23cache_aligned_allocatorIS7_EEEES7_EElN9__gnu_cxx5__ops15_Iter_comp_iterIZNS5_L9print_recERS6_lE3$_0EEEvT_SI_SI_T0_SJ_T1_"(ptr noundef %16, ptr noundef %17, ptr noundef %18, i64 noundef %26, i64 noundef %27)
  call void @llvm.lifetime.end.p0(i64 24, ptr %9) #3
  br label %28

28:                                               ; preds = %23, %22
  ret void
}