; Function Attrs: mustprogress nounwind
define internal fastcc void @"_ZSt21__inplace_stable_sortIN3tbb6detail2d115vector_iteratorINS2_17concurrent_vectorIPN4mold11TimerRecordENS2_23cache_aligned_allocatorIS7_EEEES7_EEN9__gnu_cxx5__ops15_Iter_comp_iterIZNS5_L9print_recERS6_lE3$_0EEEvT_SI_T0_"(ptr noundef nonnull readonly captures(none) %0, ptr noundef nonnull readonly captures(none) %1) unnamed_addr #4 {
  %3 = alloca %"class.tbb::detail::d1::vector_iterator", align 8
  %4 = alloca %"class.tbb::detail::d1::vector_iterator", align 8
  %5 = alloca %"class.tbb::detail::d1::vector_iterator", align 8
  %6 = alloca %"class.tbb::detail::d1::vector_iterator", align 8
  %7 = alloca %"class.tbb::detail::d1::vector_iterator", align 8
  %8 = alloca %"class.tbb::detail::d1::vector_iterator", align 8
  %9 = alloca %"class.tbb::detail::d1::vector_iterator", align 8
  %10 = alloca %"class.tbb::detail::d1::vector_iterator", align 8
  %11 = alloca %"class.tbb::detail::d1::vector_iterator", align 8
  %12 = getelementptr inbounds nuw i8, ptr %1, i64 8
  %13 = load i64, ptr %12, align 8, !tbaa !130
  %14 = getelementptr inbounds nuw i8, ptr %0, i64 8
  %15 = load i64, ptr %14, align 8, !tbaa !130
  %16 = sub nsw i64 %13, %15
  %17 = icmp slt i64 %16, 15
  br i1 %17, label %18, label %29

18:                                               ; preds = %2
  %19 = load ptr, ptr %0, align 8, !tbaa !127
  store ptr %19, ptr %3, align 8, !tbaa !127
  %20 = getelementptr inbounds nuw i8, ptr %3, i64 8
  store i64 %15, ptr %20, align 8, !tbaa !130
  %21 = getelementptr inbounds nuw i8, ptr %3, i64 16
  %22 = getelementptr inbounds nuw i8, ptr %0, i64 16
  %23 = load ptr, ptr %22, align 8, !tbaa !131
  store ptr %23, ptr %21, align 8, !tbaa !131
  %24 = load ptr, ptr %1, align 8, !tbaa !127
  store ptr %24, ptr %4, align 8, !tbaa !127
  %25 = getelementptr inbounds nuw i8, ptr %4, i64 8
  store i64 %13, ptr %25, align 8, !tbaa !130
  %26 = getelementptr inbounds nuw i8, ptr %4, i64 16
  %27 = getelementptr inbounds nuw i8, ptr %1, i64 16
  %28 = load ptr, ptr %27, align 8, !tbaa !131
  store ptr %28, ptr %26, align 8, !tbaa !131
  call fastcc void @"_ZSt16__insertion_sortIN3tbb6detail2d115vector_iteratorINS2_17concurrent_vectorIPN4mold11TimerRecordENS2_23cache_aligned_allocatorIS7_EEEES7_EEN9__gnu_cxx5__ops15_Iter_comp_iterIZNS5_L9print_recERS6_lE3$_0EEEvT_SI_T0_"(ptr noundef %3, ptr noundef %4)
  br label %61

29:                                               ; preds = %2
  %30 = lshr i64 %16, 1
  %31 = load ptr, ptr %0, align 8, !tbaa !127, !noalias !135
  %32 = add i64 %30, %15
  store ptr %31, ptr %5, align 8, !tbaa !127
  %33 = getelementptr inbounds nuw i8, ptr %5, i64 8
  store i64 %15, ptr %33, align 8, !tbaa !130
  %34 = getelementptr inbounds nuw i8, ptr %5, i64 16
  %35 = getelementptr inbounds nuw i8, ptr %0, i64 16
  %36 = load ptr, ptr %35, align 8, !tbaa !131
  store ptr %36, ptr %34, align 8, !tbaa !131
  store ptr %31, ptr %6, align 8, !tbaa !127
  %37 = getelementptr inbounds nuw i8, ptr %6, i64 8
  store i64 %32, ptr %37, align 8, !tbaa !130
  %38 = getelementptr inbounds nuw i8, ptr %6, i64 16
  store ptr null, ptr %38, align 8, !tbaa !131
  call fastcc void @"_ZSt21__inplace_stable_sortIN3tbb6detail2d115vector_iteratorINS2_17concurrent_vectorIPN4mold11TimerRecordENS2_23cache_aligned_allocatorIS7_EEEES7_EEN9__gnu_cxx5__ops15_Iter_comp_iterIZNS5_L9print_recERS6_lE3$_0EEEvT_SI_T0_"(ptr noundef %5, ptr noundef %6)
  store ptr %31, ptr %7, align 8, !tbaa !127
  %39 = getelementptr inbounds nuw i8, ptr %7, i64 8
  store i64 %32, ptr %39, align 8, !tbaa !130
  %40 = getelementptr inbounds nuw i8, ptr %7, i64 16
  store ptr null, ptr %40, align 8, !tbaa !131
  %41 = load ptr, ptr %1, align 8, !tbaa !127
  store ptr %41, ptr %8, align 8, !tbaa !127
  %42 = getelementptr inbounds nuw i8, ptr %8, i64 8
  %43 = load i64, ptr %12, align 8, !tbaa !130
  store i64 %43, ptr %42, align 8, !tbaa !130
  %44 = getelementptr inbounds nuw i8, ptr %8, i64 16
  %45 = getelementptr inbounds nuw i8, ptr %1, i64 16
  %46 = load ptr, ptr %45, align 8, !tbaa !131
  store ptr %46, ptr %44, align 8, !tbaa !131
  call fastcc void @"_ZSt21__inplace_stable_sortIN3tbb6detail2d115vector_iteratorINS2_17concurrent_vectorIPN4mold11TimerRecordENS2_23cache_aligned_allocatorIS7_EEEES7_EEN9__gnu_cxx5__ops15_Iter_comp_iterIZNS5_L9print_recERS6_lE3$_0EEEvT_SI_T0_"(ptr noundef %7, ptr noundef %8)
  %47 = load ptr, ptr %0, align 8, !tbaa !127
  store ptr %47, ptr %9, align 8, !tbaa !127
  %48 = getelementptr inbounds nuw i8, ptr %9, i64 8
  %49 = load i64, ptr %14, align 8, !tbaa !130
  store i64 %49, ptr %48, align 8, !tbaa !130
  %50 = getelementptr inbounds nuw i8, ptr %9, i64 16
  %51 = load ptr, ptr %35, align 8, !tbaa !131
  store ptr %51, ptr %50, align 8, !tbaa !131
  store ptr %31, ptr %10, align 8, !tbaa !127
  %52 = getelementptr inbounds nuw i8, ptr %10, i64 8
  store i64 %32, ptr %52, align 8, !tbaa !130
  %53 = getelementptr inbounds nuw i8, ptr %10, i64 16
  store ptr null, ptr %53, align 8, !tbaa !131
  %54 = load ptr, ptr %1, align 8, !tbaa !127
  store ptr %54, ptr %11, align 8, !tbaa !127
  %55 = getelementptr inbounds nuw i8, ptr %11, i64 8
  %56 = load i64, ptr %12, align 8, !tbaa !130
  store i64 %56, ptr %55, align 8, !tbaa !130
  %57 = getelementptr inbounds nuw i8, ptr %11, i64 16
  %58 = load ptr, ptr %45, align 8, !tbaa !131
  store ptr %58, ptr %57, align 8, !tbaa !131
  %59 = sub nsw i64 %32, %49
  %60 = sub nsw i64 %56, %32
  call fastcc void @"_ZSt22__merge_without_bufferIN3tbb6detail2d115vector_iteratorINS2_17concurrent_vectorIPN4mold11TimerRecordENS2_23cache_aligned_allocatorIS7_EEEES7_EElN9__gnu_cxx5__ops15_Iter_comp_iterIZNS5_L9print_recERS6_lE3$_0EEEvT_SI_SI_T0_SJ_T1_"(ptr noundef %9, ptr noundef %10, ptr noundef %11, i64 noundef %59, i64 noundef %60)
  br label %61

61:                                               ; preds = %29, %18
  ret void
}